; ModuleID = '40/108.c'
source_filename = "40/108.c"
target datalayout = "e-m:e-p270:32:32-p271:32:32-p272:64:64-i64:64-f80:128-n8:16:32:64-S128"
target triple = "x86_64-pc-linux-gnu"

@.str = private unnamed_addr constant [16 x i8] c"%lf\0A%lf\0A%lf\0A%lf\00", align 1
@.str.1 = private unnamed_addr constant [4 x i8] c"%lf\00", align 1
@.str.2 = private unnamed_addr constant [14 x i8] c"Invalid input\00", align 1
@.str.3 = private unnamed_addr constant [5 x i8] c"%.4f\00", align 1

; Function Attrs: noinline nounwind uwtable
define dso_local i32 @main(i32 %0, i8** %1) #0 {
  %3 = alloca i32, align 4
  %4 = alloca i32, align 4
  %5 = alloca i8**, align 8
  %6 = alloca double, align 8
  %7 = alloca double, align 8
  %8 = alloca double, align 8
  %9 = alloca double, align 8
  %10 = alloca double, align 8
  %11 = alloca double, align 8
  %12 = alloca double, align 8
  %13 = alloca double, align 8
  store i32 0, i32* %3, align 4
  store i32 %0, i32* %4, align 4
  store i8** %1, i8*** %5, align 8
  %14 = call i32 (i8*, ...) @__isoc99_scanf(i8* getelementptr inbounds ([16 x i8], [16 x i8]* @.str, i64 0, i64 0), double* %6, double* %7, double* %8, double* %9)
  %15 = call i32 (i8*, ...) @__isoc99_scanf(i8* getelementptr inbounds ([4 x i8], [4 x i8]* @.str.1, i64 0, i64 0), double* %10)
  %16 = load double, double* %6, align 8
  %17 = load double, double* %7, align 8
  %18 = fadd double %16, %17
  %19 = load double, double* %8, align 8
  %20 = fadd double %18, %19
  %21 = load double, double* %9, align 8
  %22 = fadd double %20, %21
  %23 = fdiv double %22, 2.000000e+00
  store double %23, double* %11, align 8
  %24 = load double, double* %11, align 8
  %25 = load double, double* %6, align 8
  %26 = fsub double %24, %25
  %27 = load double, double* %11, align 8
  %28 = load double, double* %7, align 8
  %29 = fsub double %27, %28
  %30 = fmul double %26, %29
  %31 = load double, double* %11, align 8
  %32 = load double, double* %8, align 8
  %33 = fsub double %31, %32
  %34 = fmul double %30, %33
  %35 = load double, double* %11, align 8
  %36 = load double, double* %9, align 8
  %37 = fsub double %35, %36
  %38 = fmul double %34, %37
  %39 = load double, double* %6, align 8
  %40 = load double, double* %7, align 8
  %41 = fmul double %39, %40
  %42 = load double, double* %8, align 8
  %43 = fmul double %41, %42
  %44 = load double, double* %9, align 8
  %45 = fmul double %43, %44
  %46 = load double, double* %10, align 8
  %47 = fmul double 1.000000e+02, %46
  %48 = fdiv double %47, 3.600000e+02
  %49 = call double @cos(double %48) #3
  %50 = fmul double %45, %49
  %51 = load double, double* %10, align 8
  %52 = fmul double 1.000000e+02, %51
  %53 = fdiv double %52, 3.600000e+02
  %54 = call double @cos(double %53) #3
  %55 = fmul double %50, %54
  %56 = fsub double %38, %55
  store double %56, double* %12, align 8
  %57 = load double, double* %12, align 8
  %58 = fcmp olt double %57, 0.000000e+00
  br i1 %58, label %59, label %61

59:                                               ; preds = %2
  %60 = call i32 (i8*, ...) @printf(i8* getelementptr inbounds ([14 x i8], [14 x i8]* @.str.2, i64 0, i64 0))
  br label %98

61:                                               ; preds = %2
  %62 = load double, double* %11, align 8
  %63 = load double, double* %6, align 8
  %64 = fsub double %62, %63
  %65 = load double, double* %11, align 8
  %66 = load double, double* %7, align 8
  %67 = fsub double %65, %66
  %68 = fmul double %64, %67
  %69 = load double, double* %11, align 8
  %70 = load double, double* %8, align 8
  %71 = fsub double %69, %70
  %72 = fmul double %68, %71
  %73 = load double, double* %11, align 8
  %74 = load double, double* %9, align 8
  %75 = fsub double %73, %74
  %76 = fmul double %72, %75
  %77 = load double, double* %6, align 8
  %78 = load double, double* %7, align 8
  %79 = fmul double %77, %78
  %80 = load double, double* %8, align 8
  %81 = fmul double %79, %80
  %82 = load double, double* %9, align 8
  %83 = fmul double %81, %82
  %84 = load double, double* %10, align 8
  %85 = fmul double 1.000000e+02, %84
  %86 = fdiv double %85, 3.600000e+02
  %87 = call double @cos(double %86) #3
  %88 = fmul double %83, %87
  %89 = load double, double* %10, align 8
  %90 = fmul double 1.000000e+02, %89
  %91 = fdiv double %90, 3.600000e+02
  %92 = call double @cos(double %91) #3
  %93 = fmul double %88, %92
  %94 = fsub double %76, %93
  %95 = call double @sqrt(double %94) #3
  store double %95, double* %13, align 8
  %96 = load double, double* %13, align 8
  %97 = call i32 (i8*, ...) @printf(i8* getelementptr inbounds ([5 x i8], [5 x i8]* @.str.3, i64 0, i64 0), double %96)
  br label %98

98:                                               ; preds = %61, %59
  ret i32 0
}

declare dso_local i32 @__isoc99_scanf(i8*, ...) #1

; Function Attrs: nounwind
declare dso_local double @cos(double) #2

declare dso_local i32 @printf(i8*, ...) #1

; Function Attrs: nounwind
declare dso_local double @sqrt(double) #2


!llvm.module.flags = !{!0}
!llvm.ident = !{!1}

!0 = !{i32 1, !"wchar_size", i32 4}
!1 = !{!"clang version 10.0.0-4ubuntu1 "}
